; Function Attrs: mustprogress nofree norecurse nosync nounwind sspstrong willreturn memory(argmem: read) uwtable
define dso_local i64 @rb_st_hash(ptr noundef %0, i64 noundef %1, i64 noundef %2) local_unnamed_addr #3 {
  %4 = icmp ugt i64 %1, 7
  br i1 %4, label %.preheader, label %.loopexit

.preheader:                                       ; preds = %3, %.preheader
  %.136 = phi i64 [ %14, %.preheader ], [ %2, %3 ]
  %.134 = phi ptr [ %15, %.preheader ], [ %0, %3 ]
  %.1 = phi i64 [ %16, %.preheader ], [ %1, %3 ]
  call void @llvm.assume(i1 true) [ "align"(ptr %.134, i64 8) ]
  %5 = load i64, ptr %.134, align 8, !tbaa !7
  %6 = mul i64 %5, -8663945395140668459
  %7 = mul i64 %5, 2487297242801635328
  %8 = lshr i64 %6, 31
  %9 = or disjoint i64 %8, %7
  %10 = xor i64 %9, %.136
  %11 = mul i64 %10, 5545529020109919103
  %12 = mul i64 %10, 4838912824426102784
  %13 = lshr i64 %11, 40
  %14 = or disjoint i64 %13, %12
  %15 = getelementptr i8, ptr %.134, i64 8
  %16 = add i64 %.1, -8
  %17 = icmp ugt i64 %16, 7
  br i1 %17, label %.preheader, label %.loopexit, !llvm.loop !68

.loopexit:                                        ; preds = %.preheader, %3
  %.035 = phi i64 [ %2, %3 ], [ %14, %.preheader ]
  %.033 = phi ptr [ %0, %3 ], [ %15, %.preheader ]
  %.0 = phi i64 [ %1, %3 ], [ %16, %.preheader ]
  switch i64 %.0, label %.unreachabledefault [
    i64 7, label %18
    i64 6, label %23
    i64 5, label %29
    i64 4, label %35
    i64 3, label %39
    i64 2, label %44
    i64 1, label %50
    i64 0, label %59
  ]

18:                                               ; preds = %.loopexit
  %19 = getelementptr i8, ptr %.033, i64 6
  %20 = load i8, ptr %19, align 1, !tbaa !43
  %21 = zext i8 %20 to i64
  %22 = shl nuw nsw i64 %21, 48
  br label %23

23:                                               ; preds = %.loopexit, %18
  %.031 = phi i64 [ 0, %.loopexit ], [ %22, %18 ]
  %24 = getelementptr i8, ptr %.033, i64 5
  %25 = load i8, ptr %24, align 1, !tbaa !43
  %26 = zext i8 %25 to i64
  %27 = shl nuw nsw i64 %26, 40
  %28 = or disjoint i64 %27, %.031
  br label %29

29:                                               ; preds = %.loopexit, %23
  %.132 = phi i64 [ 0, %.loopexit ], [ %28, %23 ]
  %30 = getelementptr i8, ptr %.033, i64 4
  %31 = load i8, ptr %30, align 1, !tbaa !43
  %32 = zext i8 %31 to i64
  %33 = shl nuw nsw i64 %32, 32
  %34 = or i64 %33, %.132
  br label %35

35:                                               ; preds = %.loopexit, %29
  %.2 = phi i64 [ 0, %.loopexit ], [ %34, %29 ]
  call void @llvm.assume(i1 true) [ "align"(ptr %.033, i64 8) ]
  %36 = load i32, ptr %.033, align 8, !tbaa !46
  %37 = zext i32 %36 to i64
  %38 = or i64 %.2, %37
  br label %54

39:                                               ; preds = %.loopexit
  %40 = getelementptr i8, ptr %.033, i64 2
  %41 = load i8, ptr %40, align 1, !tbaa !43
  %42 = zext i8 %41 to i64
  %43 = shl nuw nsw i64 %42, 16
  br label %44

44:                                               ; preds = %.loopexit, %39
  %.3 = phi i64 [ 0, %.loopexit ], [ %43, %39 ]
  %45 = getelementptr i8, ptr %.033, i64 1
  %46 = load i8, ptr %45, align 1, !tbaa !43
  %47 = zext i8 %46 to i64
  %48 = shl nuw nsw i64 %47, 8
  %49 = or disjoint i64 %48, %.3
  br label %50

50:                                               ; preds = %.loopexit, %44
  %.4 = phi i64 [ 0, %.loopexit ], [ %49, %44 ]
  %51 = load i8, ptr %.033, align 1, !tbaa !43
  %52 = zext i8 %51 to i64
  %53 = or i64 %.4, %52
  br label %54

54:                                               ; preds = %50, %35
  %.5 = phi i64 [ %53, %50 ], [ %38, %35 ]
  %55 = xor i64 %.5, %.035
  %56 = shl nuw nsw i64 %.5, 7
  %57 = sub i64 %55, %56
  %58 = mul i64 %57, 5545529020109919103
  br label %59

.unreachabledefault:                              ; preds = %.loopexit
  unreachable

59:                                               ; preds = %.loopexit, %54
  %.237 = phi i64 [ %.035, %.loopexit ], [ %58, %54 ]
  %60 = xor i64 %.237, %1
  %61 = lshr i64 %60, 30
  %62 = xor i64 %61, %60
  %63 = mul i64 %62, -4658895280553007687
  %64 = lshr i64 %63, 27
  %65 = xor i64 %64, %63
  %66 = mul i64 %65, -7723592293110705685
  %67 = lshr i64 %66, 31
  %68 = xor i64 %67, %66
  ret i64 %68
}